; Function Attrs: mustprogress uwtable
define hidden void @_ZN4ncnn21UnlockedPoolAllocatorC2Ev(ptr noundef nonnull writeonly align 8 captures(none) dereferenceable(16) initializes((0, 16)) %0) unnamed_addr #2 align 2 personality ptr @__gxx_personality_v0 {
  store ptr getelementptr inbounds nuw inrange(-16, 32) (i8, ptr @_ZTVN4ncnn21UnlockedPoolAllocatorE, i64 16), ptr %0, align 8, !tbaa !42
  %2 = tail call noalias noundef nonnull dereferenceable(64) ptr @_Znwm(i64 noundef 64) #18
  %3 = getelementptr inbounds nuw i8, ptr %0, i64 8
  %4 = getelementptr inbounds nuw i8, ptr %2, i64 16
  %5 = getelementptr inbounds nuw i8, ptr %2, i64 24
  store ptr %4, ptr %5, align 8, !tbaa !44
  store ptr %4, ptr %4, align 8, !tbaa !11
  %6 = getelementptr inbounds nuw i8, ptr %2, i64 32
  store i64 0, ptr %6, align 8, !tbaa !45
  %7 = getelementptr inbounds nuw i8, ptr %2, i64 40
  %8 = getelementptr inbounds nuw i8, ptr %2, i64 48
  store ptr %7, ptr %8, align 8, !tbaa !44
  store ptr %7, ptr %7, align 8, !tbaa !11
  %9 = getelementptr inbounds nuw i8, ptr %2, i64 56
  store i64 0, ptr %9, align 8, !tbaa !45
  store ptr %2, ptr %3, align 8, !tbaa !34
  store i32 0, ptr %2, align 8, !tbaa !37
  %10 = getelementptr inbounds nuw i8, ptr %2, i64 8
  store i64 10, ptr %10, align 8, !tbaa !40
  ret void
}